
Memory Configuration

Name             Origin             Length             Attributes
*default*        0x0000000000000000 0xffffffffffffffff

Linker script and memory map


.text           0x0000000000100000     0x5694
                0x0000000000100000                text = .
 *(.text*)
 .text          0x0000000000100000       0x11 loader.o
                0x0000000000100000                loader
 .text          0x0000000000100011      0x3c2 exceptions.o
                0x0000000000100011                exceptionDispatcher
 .text          0x00000000001003d3      0x155 idtLoader.o
                0x00000000001003d3                load_idt
 .text          0x0000000000100528       0x58 irqDispatcher.o
                0x0000000000100528                irqDispatcher
 .text          0x0000000000100580      0xca3 kernel.o
                0x00000000001005c1                getShellAddress
                0x00000000001005cc                clearBSS
                0x00000000001005f4                getStackBase
                0x0000000000100613                initializeKernelBinary
                0x0000000000100799                MusicSO
                0x0000000000100827                sleep
                0x00000000001011a0                main
 .text          0x0000000000101223      0x2e4 lib.o
                0x0000000000101223                memset
                0x00000000001012de                memcpy
                0x00000000001013b9                alloc
                0x0000000000101428                uintToBase
 .text          0x0000000000101507      0x19c moduleLoader.o
                0x0000000000101507                loadModules
 .text          0x00000000001016a3      0x49e registers.o
                0x00000000001016a3                printHexToBuffer
                0x00000000001016fd                printHex16ToBuffer
                0x000000000010172e                printHex64ToBuffer
                0x000000000010181a                printStruct
                0x0000000000101b1b                dump_registers
                0x0000000000101b36                get_register_dump
 .text          0x0000000000101b41      0x754 syscalls.o
                0x0000000000101b41                sysCallDispatcher
 .text          0x0000000000102295      0x2f0 drivers/audio.o
                0x00000000001022a9                isAudioBufferEmpty
                0x000000000010238a                getNextAudioEvent
                0x00000000001023f6                audio_timer_handler
                0x000000000010250f                play_sound
                0x0000000000102540                clearAudioBuffer
 .text          0x0000000000102585      0x24d drivers/keyboard.o
                0x0000000000102585                isFull
                0x0000000000102597                isKeyBufferEmpty
                0x00000000001025a9                clearKeyBuffer
                0x00000000001025c5                queue
                0x0000000000102649                getNextKey
                0x00000000001026ca                keyboard_handler
 .text          0x00000000001027d2        0x0 drivers/mouse.o
 .text          0x00000000001027d2      0x2a1 drivers/screen.o
                0x00000000001027d2                ncPrint
                0x000000000010283d                ncPrintChar
                0x0000000000102882                ncNewline
                0x00000000001028bc                ncPrintDec
                0x00000000001028dc                ncPrintHex
                0x00000000001028fc                ncPrintBin
                0x000000000010291c                ncPrintBase
                0x000000000010294c                ncDelChar
                0x00000000001029ec                ncClear
                0x0000000000102a59                ncSetStyle
 .text          0x0000000000102a73       0x51 drivers/tick.o
                0x0000000000102a73                timer_handler
                0x0000000000102a96                ticks_elapsed
                0x0000000000102aa3                seconds_elapsed
 .text          0x0000000000102ac4      0x19a drivers/time.o
                0x0000000000102ac4                calibrateMilis
                0x0000000000102b4d                getMilisFromBoot
                0x0000000000102be1                getTime
 .text          0x0000000000102c5e     0x1acc drivers/video.o
                0x0000000000102de7                setFpsOverlayEnabled
                0x0000000000102e37                swapBuffers
                0x0000000000102e9f                canvasMode
                0x0000000000102eb7                clearCanvas
                0x0000000000102ef2                drawPixel
                0x0000000000102f36                drawLine
                0x0000000000103077                fillScreen
                0x00000000001031b9                drawRectangle
                0x0000000000103277                drawFilledRectangle
                0x0000000000103507                drawCircle
                0x00000000001035d0                drawFilledCircle
                0x000000000010366a                drawText
                0x000000000010393a                getScreenWidth
                0x000000000010394b                getScreenHeight
                0x000000000010395c                textMode
                0x00000000001039a2                selectStyle
                0x00000000001039bc                setTextSize
                0x0000000000103a24                clearTextBuffer
                0x0000000000104214                print
                0x000000000010429b                printChar
                0x0000000000104306                deleteChar
                0x0000000000104379                scrollDown
                0x00000000001043df                scrollUp
                0x00000000001045ce                printHex64
                0x0000000000104642                printHex32
                0x00000000001046b4                printHex16
 *fill*         0x000000000010472a        0x6 
 .text          0x0000000000104730       0x51 asm/audio.o
                0x0000000000104730                output_audio_start
                0x0000000000104769                stop_audio
                0x0000000000104772                start_T
 *fill*         0x0000000000104781        0xf 
 .text          0x0000000000104790      0x2d1 asm/interrupts.o
                0x0000000000104790                _hlt
                0x0000000000104793                _cli
                0x0000000000104795                _sti
                0x0000000000104797                picMasterMask
                0x00000000001047a2                picSlaveMask
                0x00000000001047ad                _irq00Handler
                0x00000000001047fd                _irq01Handler
                0x000000000010484d                _irq02Handler
                0x000000000010489d                _irq03Handler
                0x00000000001048ed                _irq04Handler
                0x000000000010493d                _irq05Handler
                0x000000000010498d                _exception0Handler
                0x00000000001049ca                _exception6Handler
                0x0000000000104a07                _sysCallHandler
                0x0000000000104a5e                haltcpu
 *fill*         0x0000000000104a61        0xf 
 .text          0x0000000000104a70        0xa asm/keyboard.o
                0x0000000000104a70                get_keyboard_output
 *fill*         0x0000000000104a7a        0x6 
 .text          0x0000000000104a80       0x78 asm/libasm.o
                0x0000000000104a80                cpuVendor
                0x0000000000104aa1                fast_memcpy
                0x0000000000104abb                fast_memset
 *fill*         0x0000000000104af8        0x8 
 .text          0x0000000000104b00       0xe7 asm/regs.o
                0x0000000000104b00                addregs
 *fill*         0x0000000000104be7        0x9 
 .text          0x0000000000104bf0       0x3b asm/time.o
                0x0000000000104bf0                getMilis
                0x0000000000104bfa                getSeconds
                0x0000000000104c01                getMinutes
                0x0000000000104c08                getHour
                0x0000000000104c0f                getDayOfWeek
                0x0000000000104c16                getDayOfMonth
                0x0000000000104c1d                getMonth
                0x0000000000104c24                getYear
 *fill*         0x0000000000104c2b        0x5 
 .text          0x0000000000104c30        0x0 asm/video.o
                0x0000000000105000                . = ALIGN (0x1000)
 *fill*         0x0000000000104c30      0x3d0 
                0x0000000000105000                rodata = .
 *(.rodata*)
 .rodata        0x0000000000105000      0x162 exceptions.o
 *fill*         0x0000000000105162       0x1e 
 .rodata        0x0000000000105180      0x160 kernel.o
 .rodata        0x00000000001052e0       0x3d moduleLoader.o
 *fill*         0x000000000010531d        0x3 
 .rodata        0x0000000000105320      0x11d registers.o
 *fill*         0x000000000010543d        0x3 
 .rodata        0x0000000000105440       0xe1 syscalls.o
 *fill*         0x0000000000105521       0x1f 
 .rodata        0x0000000000105540       0x7a drivers/keyboard.o
 *fill*         0x00000000001055ba        0x6 
 .rodata        0x00000000001055c0       0x10 drivers/screen.o
 .rodata        0x00000000001055d0       0x30 drivers/time.o
 .rodata        0x0000000000105600       0x94 drivers/video.o

.data           0x0000000000106000      0x8c4
                0x0000000000106000                data = .
 *(.data*)
 .data          0x0000000000106000        0x0 exceptions.o
 .data          0x0000000000106000        0x0 idtLoader.o
 .data          0x0000000000106000        0x0 irqDispatcher.o
 .data          0x0000000000106000        0x0 kernel.o
 .data          0x0000000000106000        0x0 lib.o
 .data          0x0000000000106000        0x0 moduleLoader.o
 .data          0x0000000000106000        0x0 registers.o
 .data          0x0000000000106000        0x0 syscalls.o
 .data          0x0000000000106000        0x0 drivers/audio.o
 .data          0x0000000000106000        0x0 drivers/keyboard.o
 .data          0x0000000000106000        0x0 drivers/mouse.o
 .data          0x0000000000106000       0x49 drivers/screen.o
 .data          0x0000000000106049        0x0 drivers/tick.o
 .data          0x0000000000106049        0x0 drivers/time.o
 *fill*         0x0000000000106049       0x17 
 .data          0x0000000000106060      0x841 drivers/video.o
                0x0000000000106060                font8x16
                0x0000000000106860                VBE_mode_info
                0x0000000000106868                backbuffer
                0x0000000000106870                text_mode_enabled
                0x00000000001068a0                selected_style
 *fill*         0x00000000001068a1        0x3 
 .data          0x00000000001068a4       0x20 asm/interrupts.o
                0x00000000001068c4                endOfKernelBinary = .

.bss            0x0000000000107000     0xacd8
                0x0000000000107000                bss = .
 *(.bss*)
 .bss           0x0000000000107000        0x0 exceptions.o
 .bss           0x0000000000107000        0x8 idtLoader.o
                0x0000000000107000                idt
 .bss           0x0000000000107008        0x0 irqDispatcher.o
 .bss           0x0000000000107008        0x0 kernel.o
 .bss           0x0000000000107008        0x8 lib.o
 .bss           0x0000000000107010        0x4 moduleLoader.o
 *fill*         0x0000000000107014        0xc 
 .bss           0x0000000000107020      0x8c4 registers.o
 .bss           0x00000000001078e4        0x4 syscalls.o
 *fill*         0x00000000001078e8       0x18 
 .bss           0x0000000000107900     0x1f4c drivers/audio.o
 *fill*         0x000000000010984c       0x14 
 .bss           0x0000000000109860      0x404 drivers/keyboard.o
                0x0000000000109860                buffer
                0x0000000000109c5c                size
                0x0000000000109c5d                head
                0x0000000000109c5e                tail
                0x0000000000109c5f                isShiftPressed
                0x0000000000109c60                null
 .bss           0x0000000000109c64        0x0 drivers/mouse.o
 .bss           0x0000000000109c64        0x0 drivers/screen.o
 *fill*         0x0000000000109c64        0x4 
 .bss           0x0000000000109c68        0x8 drivers/tick.o
 .bss           0x0000000000109c70        0x8 drivers/time.o
                0x0000000000109c70                ticksPerMs
 *fill*         0x0000000000109c78        0x8 
 .bss           0x0000000000109c80     0x8020 drivers/video.o
                0x0000000000109c80                text_buffer
                0x0000000000111c80                cursor
                0x0000000000111c84                offset
 .bss           0x0000000000111ca0        0x8 asm/interrupts.o
 .bss           0x0000000000111ca8       0x30 asm/regs.o
                0x0000000000111cc8                saved_stack_ptr
                0x0000000000111cd0                initial_saved_stack_ptr
 *(EXCLUDE_FILE(*.o) COMMON)
                0x0000000000112000                . = ALIGN (0x1000)
                0x0000000000112000                endOfKernel = .
LOAD loader.o
LOAD exceptions.o
LOAD idtLoader.o
LOAD irqDispatcher.o
LOAD kernel.o
LOAD lib.o
LOAD moduleLoader.o
LOAD registers.o
LOAD syscalls.o
LOAD drivers/audio.o
LOAD drivers/keyboard.o
LOAD drivers/mouse.o
LOAD drivers/screen.o
LOAD drivers/tick.o
LOAD drivers/time.o
LOAD drivers/video.o
LOAD asm/audio.o
LOAD asm/interrupts.o
LOAD asm/keyboard.o
LOAD asm/libasm.o
LOAD asm/mouse.o
LOAD asm/regs.o
LOAD asm/time.o
LOAD asm/video.o
OUTPUT(kernel.bin binary)

.comment        0x0000000000000000      0x1e0
 .comment       0x0000000000000000       0x20 exceptions.o
 .comment       0x0000000000000020       0x20 idtLoader.o
 .comment       0x0000000000000040       0x20 irqDispatcher.o
 .comment       0x0000000000000060       0x20 kernel.o
 .comment       0x0000000000000080       0x20 lib.o
 .comment       0x00000000000000a0       0x20 moduleLoader.o
 .comment       0x00000000000000c0       0x20 registers.o
 .comment       0x00000000000000e0       0x20 syscalls.o
 .comment       0x0000000000000100       0x20 drivers/audio.o
 .comment       0x0000000000000120       0x20 drivers/keyboard.o
 .comment       0x0000000000000140       0x20 drivers/mouse.o
 .comment       0x0000000000000160       0x20 drivers/screen.o
 .comment       0x0000000000000180       0x20 drivers/tick.o
 .comment       0x00000000000001a0       0x20 drivers/time.o
 .comment       0x00000000000001c0       0x20 drivers/video.o

.note.GNU-stack
                0x0000000000000000        0x0
 .note.GNU-stack
                0x0000000000000000        0x0 exceptions.o
 .note.GNU-stack
                0x0000000000000000        0x0 idtLoader.o
 .note.GNU-stack
                0x0000000000000000        0x0 irqDispatcher.o
 .note.GNU-stack
                0x0000000000000000        0x0 kernel.o
 .note.GNU-stack
                0x0000000000000000        0x0 lib.o
 .note.GNU-stack
                0x0000000000000000        0x0 moduleLoader.o
 .note.GNU-stack
                0x0000000000000000        0x0 registers.o
 .note.GNU-stack
                0x0000000000000000        0x0 syscalls.o
 .note.GNU-stack
                0x0000000000000000        0x0 drivers/audio.o
 .note.GNU-stack
                0x0000000000000000        0x0 drivers/keyboard.o
 .note.GNU-stack
                0x0000000000000000        0x0 drivers/mouse.o
 .note.GNU-stack
                0x0000000000000000        0x0 drivers/screen.o
 .note.GNU-stack
                0x0000000000000000        0x0 drivers/tick.o
 .note.GNU-stack
                0x0000000000000000        0x0 drivers/time.o
 .note.GNU-stack
                0x0000000000000000        0x0 drivers/video.o
